target datalayout = "e-m:e-p270:32:32-p271:32:32-p272:64:64-i64:64-i128:128-f80:128-n8:16:32:64-S128"
target triple = "x86_64-pc-linux-gnu"

%struct.assoc_mgr_lock_t = type { i32, i32, i32, i32, i32, i32, i32 }
%struct.slurm_conf_t = type { i64, ptr, i16, ptr, ptr, ptr, ptr, ptr, i16, ptr, ptr, ptr, ptr, ptr, ptr, ptr, i16, ptr, ptr, ptr, ptr, i16, ptr, ptr, ptr, i64, ptr, ptr, ptr, ptr, i16, ptr, ptr, i16, i32, ptr, i32, ptr, i32, i32, ptr, ptr, i64, i64, ptr, i16, i16, ptr, i32, i32, ptr, i32, ptr, i32, i16, i16, i16, ptr, i16, i16, ptr, ptr, i32, i16, i16, ptr, i32, i16, ptr, ptr, ptr, ptr, i16, ptr, ptr, ptr, ptr, i32, ptr, ptr, ptr, ptr, i16, i16, ptr, i32, i32, i32, i16, i16, ptr, ptr, i16, ptr, ptr, i32, i32, i32, i32, i32, i64, i32, i32, i16, ptr, ptr, i32, ptr, ptr, ptr, i16, i32, ptr, ptr, i16, ptr, ptr, i32, i16, ptr, ptr, ptr, ptr, i32, i32, i16, i16, i32, ptr, i16, ptr, i32, i32, i32, i32, i32, i32, ptr, i16, ptr, ptr, i32, i16, ptr, i32, i16, i16, ptr, ptr, ptr, i16, ptr, ptr, ptr, ptr, i16, i16, ptr, i16, ptr, i16, ptr, i16, ptr, i16, ptr, ptr, ptr, ptr, i16, ptr, ptr, ptr, i32, ptr, i32, ptr, ptr, i16, ptr, ptr, i32, i16, ptr, ptr, i16, i16, ptr, i16, ptr, ptr, ptr, i32, ptr, i16, i16, ptr, ptr, ptr, ptr, ptr, ptr, ptr, ptr, i16, i32, i16, ptr, ptr, ptr, ptr, i32, ptr, ptr, ptr, i16, ptr, ptr, ptr, i16, ptr, i16, ptr, i16, i16, ptr }
%struct.job_record = type { i32, ptr, ptr, ptr, ptr, i16, i32, i32, i32, ptr, i32, ptr, ptr, i16, ptr, double, i64, ptr, ptr, ptr, ptr, ptr, ptr, i32, ptr, i32, i64, i64, i32, i32, ptr, i16, i64, i64, i8, i32, ptr, ptr, ptr, ptr, ptr, ptr, ptr, ptr, i32, ptr, ptr, i32, ptr, i32, ptr, i32, ptr, i32, ptr, ptr, ptr, ptr, ptr, ptr, i32, i16, i64, ptr, ptr, ptr, ptr, %struct.acct_policy_limit_set_t, i16, ptr, ptr, ptr, ptr, ptr, i32, ptr, ptr, ptr, ptr, ptr, i32, i32, ptr, ptr, ptr, i16, ptr, ptr, i8, ptr, ptr, i64, i64, i8, i32, i32, i8, i32, ptr, i32, i64, i32, ptr, ptr, ptr, i8, i16, i64, i32, ptr, ptr, ptr, ptr, ptr, i16, i32, ptr, ptr, ptr, ptr, i32, ptr, i32, i16, i64, ptr, i32, i32, ptr, i64, ptr, ptr, i64, i32, i32, i64, i32, i32, ptr, ptr, ptr, ptr, ptr, ptr, ptr, ptr, ptr, ptr, ptr, ptr, i32, ptr, i16, i16, i16, i16, ptr, i32, i32, i8, i64 }
%struct.acct_policy_limit_set_t = type { i16, i16, ptr }
%struct.slurmdb_qos_rec_t = type { i64, ptr, i32, i32, i32, i32, i32, i32, ptr, ptr, ptr, ptr, ptr, ptr, i32, double, i32, i32, i32, i32, i32, i32, ptr, ptr, ptr, ptr, ptr, ptr, ptr, ptr, ptr, ptr, ptr, ptr, ptr, ptr, i32, i32, ptr, ptr, ptr, ptr, ptr, i16, i32, i32, ptr, ptr, double, double }
%struct.job_array_struct = type { i32, ptr, ptr, i32, i32, i32, i32, i32, i32, i32 }
%struct.slurmdb_assoc_rec = type { ptr, ptr, ptr, ptr, ptr, ptr, ptr, i32, i32, i32, i32, i32, ptr, ptr, ptr, ptr, ptr, ptr, i32, i32, i16, ptr, ptr, i32, i32, i32, ptr, ptr, ptr, ptr, ptr, ptr, ptr, ptr, i32, i32, ptr, i32, ptr, i32, ptr, i32, i32, ptr, ptr, ptr }
%struct.job_details_t = type { i32, ptr, i64, ptr, i32, ptr, i64, ptr, i16, i16, ptr, i16, i32, i32, i32, i16, ptr, i16, ptr, ptr, ptr, i16, ptr, ptr, ptr, ptr, i32, ptr, ptr, ptr, ptr, ptr, i32, i32, i32, ptr, ptr, i16, i32, i32, i32, i32, i32, i32, i16, i16, i32, i8, i8, i32, i32, i64, i64, i16, i32, ptr, ptr, i8, ptr, i32, ptr, i64, ptr, ptr, i16, i16, i16, i8, ptr, ptr, ptr, ptr, ptr, ptr, i64, i32, i32, i8, ptr, i16, ptr, ptr, i16 }
%struct.acct_policy_accrue_t = type { ptr, ptr, i32, ptr, i8, i64, ptr, i32, ptr, ptr }

@accounting_enforce = external global i16, align 2
@slurm_conf = external global %struct.slurm_conf_t, align 8
@.str.28 = private unnamed_addr constant [162 x i8] c"%s: no assoc_ptr, this usually means the association was removed right after the job (%pJ) was started, but didn't make it to the database before it was removed.\00", align 1
@__const.acct_policy_remove_accrue_time.locks = private unnamed_addr constant %struct.assoc_mgr_lock_t { i32 2, i32 0, i32 2, i32 0, i32 0, i32 0, i32 0 }, align 4
@__func__.acct_policy_remove_accrue_time = private unnamed_addr constant [31 x i8] c"acct_policy_remove_accrue_time\00", align 1

; Function Attrs: nounwind uwtable
define internal void @_set_highest_prio_qos_ptr(ptr noundef %0) #0 {
  %2 = alloca ptr, align 8
  store ptr %0, ptr %2, align 8
  %3 = load ptr, ptr %2, align 8
  %4 = getelementptr inbounds nuw %struct.job_record, ptr %3, i32 0, i32 102
  %5 = load ptr, ptr %4, align 8
  %6 = icmp ne ptr %5, null
  br i1 %6, label %7, label %13

7:                                                ; preds = %1
  %8 = load ptr, ptr %2, align 8
  %9 = getelementptr inbounds nuw %struct.job_record, ptr %8, i32 0, i32 102
  %10 = load ptr, ptr %9, align 8
  %11 = call i32 @list_count(ptr noundef %10)
  %12 = icmp ne i32 %11, 0
  br i1 %12, label %14, label %13

13:                                               ; preds = %7, %1
  br label %28

14:                                               ; preds = %7
  %15 = load ptr, ptr %2, align 8
  %16 = getelementptr inbounds nuw %struct.job_record, ptr %15, i32 0, i32 102
  %17 = load ptr, ptr %16, align 8
  %18 = call ptr @list_peek(ptr noundef %17)
  %19 = load ptr, ptr %2, align 8
  %20 = getelementptr inbounds nuw %struct.job_record, ptr %19, i32 0, i32 103
  store ptr %18, ptr %20, align 8
  %21 = load ptr, ptr %2, align 8
  %22 = getelementptr inbounds nuw %struct.job_record, ptr %21, i32 0, i32 103
  %23 = load ptr, ptr %22, align 8
  %24 = getelementptr inbounds nuw %struct.slurmdb_qos_rec_t, ptr %23, i32 0, i32 2
  %25 = load i32, ptr %24, align 8
  %26 = load ptr, ptr %2, align 8
  %27 = getelementptr inbounds nuw %struct.job_record, ptr %26, i32 0, i32 101
  store i32 %25, ptr %27, align 8
  br label %28

28:                                               ; preds = %14, %13
  ret void
}

; Function Attrs: nounwind uwtable
define dso_local void @acct_policy_remove_accrue_time(ptr noundef %0, i1 noundef zeroext %1) #0 {
  %3 = alloca ptr, align 8
  %4 = alloca i8, align 1
  %5 = alloca %struct.assoc_mgr_lock_t, align 4
  %6 = alloca %struct.acct_policy_accrue_t, align 8
  %7 = alloca i32, align 4
  store ptr %0, ptr %3, align 8
  %8 = zext i1 %1 to i8
  store i8 %8, ptr %4, align 1
  call void @llvm.lifetime.start.p0(i64 28, ptr %5) #8
  call void @llvm.memcpy.p0.p0.i64(ptr align 4 %5, ptr align 4 @__const.acct_policy_remove_accrue_time.locks, i64 28, i1 false)
  call void @llvm.lifetime.start.p0(i64 80, ptr %6) #8
  call void @llvm.memset.p0.i64(ptr align 8 %6, i8 0, i64 80, i1 false)
  %9 = getelementptr inbounds nuw %struct.acct_policy_accrue_t, ptr %6, i32 0, i32 7
  %10 = load ptr, ptr %3, align 8
  %11 = getelementptr inbounds nuw %struct.job_record, ptr %10, i32 0, i32 150
  %12 = load i32, ptr %11, align 8
  store i32 %12, ptr %9, align 8
  %13 = load i16, ptr getelementptr inbounds nuw (%struct.slurm_conf_t, ptr @slurm_conf, i32 0, i32 126), align 2
  %14 = zext i16 %13 to i64
  %15 = and i64 %14, 1
  %16 = icmp ne i64 %15, 0
  br i1 %16, label %17, label %18

17:                                               ; preds = %2
  store i32 1, ptr %7, align 4
  br label %113

18:                                               ; preds = %2
  %19 = load i16, ptr @accounting_enforce, align 2
  %20 = zext i16 %19 to i64
  %21 = and i64 %20, 2
  %22 = icmp ne i64 %21, 0
  br i1 %22, label %24, label %23

23:                                               ; preds = %18
  store i32 1, ptr %7, align 4
  br label %113

24:                                               ; preds = %18
  %25 = load ptr, ptr %3, align 8
  %26 = getelementptr inbounds nuw %struct.job_record, ptr %25, i32 0, i32 30
  %27 = load ptr, ptr %26, align 8
  %28 = icmp ne ptr %27, null
  br i1 %28, label %29, label %36

29:                                               ; preds = %24
  %30 = load ptr, ptr %3, align 8
  %31 = getelementptr inbounds nuw %struct.job_record, ptr %30, i32 0, i32 30
  %32 = load ptr, ptr %31, align 8
  %33 = getelementptr inbounds nuw %struct.job_details_t, ptr %32, i32 0, i32 2
  %34 = load i64, ptr %33, align 8
  %35 = icmp ne i64 %34, 0
  br i1 %35, label %37, label %36

36:                                               ; preds = %29, %24
  store i32 1, ptr %7, align 4
  br label %113

37:                                               ; preds = %29
  %38 = load ptr, ptr %3, align 8
  %39 = getelementptr inbounds nuw %struct.job_record, ptr %38, i32 0, i32 60
  %40 = load i32, ptr %39, align 8
  %41 = and i32 %40, 255
  %42 = icmp eq i32 %41, 0
  br i1 %42, label %44, label %43

43:                                               ; preds = %37
  store i32 1, ptr %7, align 4
  br label %113

44:                                               ; preds = %37
  %45 = load i8, ptr %4, align 1, !range !8, !noundef !9
  %46 = trunc i8 %45 to i1
  br i1 %46, label %48, label %47

47:                                               ; preds = %44
  call void @assoc_mgr_lock(ptr noundef %5)
  br label %48

48:                                               ; preds = %47, %44
  %49 = load ptr, ptr %3, align 8
  %50 = getelementptr inbounds nuw %struct.job_record, ptr %49, i32 0, i32 11
  %51 = load ptr, ptr %50, align 8
  %52 = getelementptr inbounds nuw %struct.acct_policy_accrue_t, ptr %6, i32 0, i32 1
  store ptr %51, ptr %52, align 8
  %53 = getelementptr inbounds nuw %struct.acct_policy_accrue_t, ptr %6, i32 0, i32 1
  %54 = load ptr, ptr %53, align 8
  %55 = icmp ne ptr %54, null
  br i1 %55, label %68, label %56

56:                                               ; preds = %48
  br label %57

57:                                               ; preds = %56
  br label %58

58:                                               ; preds = %57
  %59 = call i32 @get_log_level()
  %60 = icmp sge i32 %59, 5
  br i1 %60, label %61, label %63

61:                                               ; preds = %58
  %62 = load ptr, ptr %3, align 8
  call void (i32, ptr, ...) @log_var(i32 noundef 5, ptr noundef @.str.28, ptr noundef @__func__.acct_policy_remove_accrue_time, ptr noundef %62)
  br label %63

63:                                               ; preds = %61, %58
  br label %64

64:                                               ; preds = %63
  br label %65

65:                                               ; preds = %64
  br label %66

66:                                               ; preds = %65
  br label %67

67:                                               ; preds = %66
  br label %108

68:                                               ; preds = %48
  %69 = getelementptr inbounds nuw %struct.acct_policy_accrue_t, ptr %6, i32 0, i32 1
  %70 = load ptr, ptr %69, align 8
  %71 = getelementptr inbounds nuw %struct.slurmdb_assoc_rec, ptr %70, i32 0, i32 1
  %72 = load ptr, ptr %71, align 8
  %73 = getelementptr inbounds nuw %struct.acct_policy_accrue_t, ptr %6, i32 0, i32 0
  store ptr %72, ptr %73, align 8
  %74 = load ptr, ptr %3, align 8
  %75 = getelementptr inbounds nuw %struct.job_record, ptr %74, i32 0, i32 9
  %76 = load ptr, ptr %75, align 8
  %77 = icmp ne ptr %76, null
  br i1 %77, label %78, label %92

78:                                               ; preds = %68
  %79 = load ptr, ptr %3, align 8
  %80 = getelementptr inbounds nuw %struct.job_record, ptr %79, i32 0, i32 9
  %81 = load ptr, ptr %80, align 8
  %82 = getelementptr inbounds nuw %struct.job_array_struct, ptr %81, i32 0, i32 0
  %83 = load i32, ptr %82, align 8
  %84 = icmp ne i32 %83, 0
  br i1 %84, label %85, label %92

85:                                               ; preds = %78
  %86 = load ptr, ptr %3, align 8
  %87 = getelementptr inbounds nuw %struct.job_record, ptr %86, i32 0, i32 9
  %88 = load ptr, ptr %87, align 8
  %89 = getelementptr inbounds nuw %struct.job_array_struct, ptr %88, i32 0, i32 0
  %90 = load i32, ptr %89, align 8
  %91 = getelementptr inbounds nuw %struct.acct_policy_accrue_t, ptr %6, i32 0, i32 2
  store i32 %90, ptr %91, align 8
  br label %94

92:                                               ; preds = %78, %68
  %93 = getelementptr inbounds nuw %struct.acct_policy_accrue_t, ptr %6, i32 0, i32 2
  store i32 1, ptr %93, align 8
  br label %94

94:                                               ; preds = %92, %85
  %95 = load ptr, ptr %3, align 8
  call void @_set_highest_prio_qos_ptr(ptr noundef %95)
  %96 = load ptr, ptr %3, align 8
  %97 = getelementptr inbounds nuw %struct.job_record, ptr %96, i32 0, i32 103
  %98 = load ptr, ptr %97, align 8
  %99 = call i32 @_for_each_qos_remove_accrue_time(ptr noundef %98, ptr noundef %6)
  %100 = load ptr, ptr %3, align 8
  %101 = getelementptr inbounds nuw %struct.job_record, ptr %100, i32 0, i32 30
  %102 = load ptr, ptr %101, align 8
  %103 = getelementptr inbounds nuw %struct.job_details_t, ptr %102, i32 0, i32 2
  store i64 0, ptr %103, align 8
  %104 = load ptr, ptr %3, align 8
  %105 = getelementptr inbounds nuw %struct.job_record, ptr %104, i32 0, i32 16
  %106 = load i64, ptr %105, align 8
  %107 = and i64 %106, -262145
  store i64 %107, ptr %105, align 8
  br label %108

108:                                              ; preds = %94, %67
  %109 = load i8, ptr %4, align 1, !range !8, !noundef !9
  %110 = trunc i8 %109 to i1
  br i1 %110, label %112, label %111

111:                                              ; preds = %108
  call void @assoc_mgr_unlock(ptr noundef %5)
  br label %112

112:                                              ; preds = %111, %108
  store i32 0, ptr %7, align 4
  br label %113

113:                                              ; preds = %112, %43, %36, %23, %17
  call void @llvm.lifetime.end.p0(i64 80, ptr %6) #8
  call void @llvm.lifetime.end.p0(i64 28, ptr %5) #8
  %114 = load i32, ptr %7, align 4
  switch i32 %114, label %116 [
    i32 0, label %115
    i32 1, label %115
  ]

115:                                              ; preds = %113, %113
  ret void

116:                                              ; preds = %113
  unreachable
}