; Function Attrs: nounwind uwtable
define dso_local void @acct_policy_remove_accrue_time(ptr noundef %0, i1 noundef zeroext %1) local_unnamed_addr #0 {
  %3 = alloca %struct.assoc_mgr_lock_t, align 4
  %4 = alloca %struct.acct_policy_accrue_t, align 8
  call void @llvm.lifetime.start.p0(i64 28, ptr nonnull %3) #15
  call void @llvm.memcpy.p0.p0.i64(ptr noundef nonnull align 4 dereferenceable(28) %3, ptr noundef nonnull align 4 dereferenceable(28) @__const.acct_policy_remove_accrue_time.locks, i64 28, i1 false)
  call void @llvm.lifetime.start.p0(i64 80, ptr nonnull %4) #15
  %5 = getelementptr inbounds nuw i8, ptr %4, i64 16
  call void @llvm.memset.p0.i64(ptr noundef nonnull align 8 dereferenceable(80) %5, i8 0, i64 64, i1 false)
  %6 = getelementptr inbounds nuw i8, ptr %4, i64 56
  %7 = getelementptr inbounds nuw i8, ptr %0, i64 1096
  %8 = load i32, ptr %7, align 8
  store i32 %8, ptr %6, align 8
  %9 = load i16, ptr getelementptr inbounds nuw (i8, ptr @slurm_conf, i64 842), align 2
  %10 = and i16 %9, 1
  %.not = icmp eq i16 %10, 0
  br i1 %.not, label %11, label %65

11:                                               ; preds = %2
  %12 = load i16, ptr @accounting_enforce, align 2
  %13 = and i16 %12, 2
  %.not17 = icmp eq i16 %13, 0
  br i1 %.not17, label %65, label %14

14:                                               ; preds = %11
  %15 = getelementptr inbounds nuw i8, ptr %0, i64 216
  %16 = load ptr, ptr %15, align 8
  %.not18 = icmp eq ptr %16, null
  br i1 %.not18, label %65, label %17

17:                                               ; preds = %14
  %18 = getelementptr inbounds nuw i8, ptr %16, i64 16
  %19 = load i64, ptr %18, align 8
  %.not19 = icmp eq i64 %19, 0
  br i1 %.not19, label %65, label %20

20:                                               ; preds = %17
  %21 = getelementptr inbounds nuw i8, ptr %0, i64 448
  %22 = load i32, ptr %21, align 8
  %23 = and i32 %22, 255
  %24 = icmp eq i32 %23, 0
  br i1 %24, label %25, label %65

25:                                               ; preds = %20
  br i1 %1, label %27, label %26

26:                                               ; preds = %25
  call void @assoc_mgr_lock(ptr noundef nonnull %3) #15
  br label %27

27:                                               ; preds = %26, %25
  %28 = getelementptr inbounds nuw i8, ptr %0, i64 72
  %29 = load ptr, ptr %28, align 8
  %30 = getelementptr inbounds nuw i8, ptr %4, i64 8
  store ptr %29, ptr %30, align 8
  %.not20 = icmp eq ptr %29, null
  br i1 %.not20, label %31, label %35

31:                                               ; preds = %27
  %32 = call i32 @get_log_level() #15
  %33 = icmp sgt i32 %32, 4
  br i1 %33, label %34, label %63

34:                                               ; preds = %31
  call void (i32, ptr, ...) @log_var(i32 noundef 5, ptr noundef nonnull @.str.28, ptr noundef nonnull @__func__.acct_policy_remove_accrue_time, ptr noundef nonnull %0) #15
  br label %63

35:                                               ; preds = %27
  %36 = getelementptr inbounds nuw i8, ptr %29, i64 8
  %37 = load ptr, ptr %36, align 8
  store ptr %37, ptr %4, align 8
  %38 = getelementptr inbounds nuw i8, ptr %0, i64 56
  %39 = load ptr, ptr %38, align 8
  %.not21 = icmp eq ptr %39, null
  br i1 %.not21, label %42, label %40

40:                                               ; preds = %35
  %41 = load i32, ptr %39, align 8
  %.not22 = icmp eq i32 %41, 0
  br i1 %.not22, label %42, label %43

42:                                               ; preds = %40, %35
  br label %43

43:                                               ; preds = %40, %42
  %.sink = phi i32 [ 1, %42 ], [ %41, %40 ]
  %44 = getelementptr inbounds nuw i8, ptr %4, i64 16
  store i32 %.sink, ptr %44, align 8
  %45 = getelementptr inbounds nuw i8, ptr %0, i64 760
  %46 = load ptr, ptr %45, align 8
  %.not.i = icmp eq ptr %46, null
  br i1 %.not.i, label %_set_highest_prio_qos_ptr.exit, label %47

47:                                               ; preds = %43
  %48 = call i32 @list_count(ptr noundef nonnull %46) #15
  %.not6.i = icmp eq i32 %48, 0
  br i1 %.not6.i, label %_set_highest_prio_qos_ptr.exit, label %49

49:                                               ; preds = %47
  %50 = load ptr, ptr %45, align 8
  %51 = call ptr @list_peek(ptr noundef %50) #15
  %52 = getelementptr inbounds nuw i8, ptr %0, i64 768
  store ptr %51, ptr %52, align 8
  %53 = getelementptr inbounds nuw i8, ptr %51, i64 16
  %54 = load i32, ptr %53, align 8
  %55 = getelementptr inbounds nuw i8, ptr %0, i64 752
  store i32 %54, ptr %55, align 8
  br label %_set_highest_prio_qos_ptr.exit

_set_highest_prio_qos_ptr.exit:                   ; preds = %43, %47, %49
  %56 = getelementptr inbounds nuw i8, ptr %0, i64 768
  %57 = load ptr, ptr %56, align 8
  call fastcc void @_for_each_qos_remove_accrue_time(ptr noundef %57, ptr noundef %4)
  %58 = load ptr, ptr %15, align 8
  %59 = getelementptr inbounds nuw i8, ptr %58, i64 16
  store i64 0, ptr %59, align 8
  %60 = getelementptr inbounds nuw i8, ptr %0, i64 112
  %61 = load i64, ptr %60, align 8
  %62 = and i64 %61, -262145
  store i64 %62, ptr %60, align 8
  br label %63

63:                                               ; preds = %31, %34, %_set_highest_prio_qos_ptr.exit
  br i1 %1, label %65, label %64

64:                                               ; preds = %63
  call void @assoc_mgr_unlock(ptr noundef nonnull %3) #15
  br label %65

65:                                               ; preds = %63, %64, %20, %14, %17, %11, %2
  call void @llvm.lifetime.end.p0(i64 80, ptr nonnull %4) #15
  call void @llvm.lifetime.end.p0(i64 28, ptr nonnull %3) #15
  ret void
}